target datalayout = "e-m:e-p270:32:32-p271:32:32-p272:64:64-i64:64-i128:128-f80:128-n8:16:32:64-S128"
target triple = "x86_64-pc-linux-gnu"

%struct.METHOD = type { ptr, ptr, ptr }
%struct.QUERY = type { ptr, ptr, %struct.METHOD, [1 x i8] }
%struct.IMPL_CACHE_FLUSH = type { ptr, i64, i32, i8 }

@.str = private unnamed_addr constant [38 x i8] c"../openssl/crypto/property/property.c\00", align 1

; Function Attrs: nounwind uwtable
define internal void @ossl_method_free(ptr noundef %0) #0 {
  %2 = alloca ptr, align 8
  store ptr %0, ptr %2, align 8, !tbaa !3
  %3 = load ptr, ptr %2, align 8, !tbaa !3
  %4 = getelementptr inbounds nuw %struct.METHOD, ptr %3, i32 0, i32 2
  %5 = load ptr, ptr %4, align 8, !tbaa !82
  %6 = load ptr, ptr %2, align 8, !tbaa !3
  %7 = getelementptr inbounds nuw %struct.METHOD, ptr %6, i32 0, i32 0
  %8 = load ptr, ptr %7, align 8, !tbaa !49
  call void %5(ptr noundef %8)
  ret void
}

; Function Attrs: nounwind uwtable
define internal void @impl_cache_free(ptr noundef %0) #0 {
  %2 = alloca ptr, align 8
  store ptr %0, ptr %2, align 8, !tbaa !3
  %3 = load ptr, ptr %2, align 8, !tbaa !3
  %4 = icmp ne ptr %3, null
  br i1 %4, label %5, label %9

5:                                                ; preds = %1
  %6 = load ptr, ptr %2, align 8, !tbaa !3
  %7 = getelementptr inbounds nuw %struct.QUERY, ptr %6, i32 0, i32 2
  call void @ossl_method_free(ptr noundef %7)
  %8 = load ptr, ptr %2, align 8, !tbaa !3
  call void @CRYPTO_free(ptr noundef %8, ptr noundef @.str, i32 noundef 215)
  br label %9

9:                                                ; preds = %5, %1
  ret void
}

; Function Attrs: inlinehint nounwind uwtable
define internal ptr @lh_QUERY_delete(ptr noundef %0, ptr noundef %1) #3 {
  %3 = alloca ptr, align 8
  %4 = alloca ptr, align 8
  store ptr %0, ptr %3, align 8, !tbaa !74
  store ptr %1, ptr %4, align 8, !tbaa !3
  %5 = load ptr, ptr %3, align 8, !tbaa !74
  %6 = load ptr, ptr %4, align 8, !tbaa !3
  %7 = call ptr @OPENSSL_LH_delete(ptr noundef %5, ptr noundef %6)
  ret ptr %7
}

; Function Attrs: nounwind uwtable
define internal void @impl_cache_flush_cache(ptr noundef %0, ptr noundef %1) #0 {
  %3 = alloca ptr, align 8
  %4 = alloca ptr, align 8
  %5 = alloca i32, align 4
  store ptr %0, ptr %3, align 8, !tbaa !3
  store ptr %1, ptr %4, align 8, !tbaa !3
  call void @llvm.lifetime.start.p0(i64 4, ptr %5) #7
  %6 = load ptr, ptr %4, align 8, !tbaa !3
  %7 = getelementptr inbounds nuw %struct.IMPL_CACHE_FLUSH, ptr %6, i32 0, i32 2
  %8 = load i32, ptr %7, align 8, !tbaa !81
  store i32 %8, ptr %5, align 4, !tbaa !15
  %9 = load i32, ptr %5, align 4, !tbaa !15
  %10 = shl i32 %9, 13
  %11 = load i32, ptr %5, align 4, !tbaa !15
  %12 = xor i32 %11, %10
  store i32 %12, ptr %5, align 4, !tbaa !15
  %13 = load i32, ptr %5, align 4, !tbaa !15
  %14 = lshr i32 %13, 17
  %15 = load i32, ptr %5, align 4, !tbaa !15
  %16 = xor i32 %15, %14
  store i32 %16, ptr %5, align 4, !tbaa !15
  %17 = load i32, ptr %5, align 4, !tbaa !15
  %18 = shl i32 %17, 5
  %19 = load i32, ptr %5, align 4, !tbaa !15
  %20 = xor i32 %19, %18
  store i32 %20, ptr %5, align 4, !tbaa !15
  %21 = load i32, ptr %5, align 4, !tbaa !15
  %22 = load ptr, ptr %4, align 8, !tbaa !3
  %23 = getelementptr inbounds nuw %struct.IMPL_CACHE_FLUSH, ptr %22, i32 0, i32 2
  store i32 %21, ptr %23, align 8, !tbaa !81
  %24 = load i32, ptr %5, align 4, !tbaa !15
  %25 = and i32 %24, 1
  %26 = icmp ne i32 %25, 0
  br i1 %26, label %27, label %33

27:                                               ; preds = %2
  %28 = load ptr, ptr %4, align 8, !tbaa !3
  %29 = getelementptr inbounds nuw %struct.IMPL_CACHE_FLUSH, ptr %28, i32 0, i32 0
  %30 = load ptr, ptr %29, align 8, !tbaa !83
  %31 = load ptr, ptr %3, align 8, !tbaa !3
  %32 = call ptr @lh_QUERY_delete(ptr noundef %30, ptr noundef %31)
  call void @impl_cache_free(ptr noundef %32)
  br label %38

33:                                               ; preds = %2
  %34 = load ptr, ptr %4, align 8, !tbaa !3
  %35 = getelementptr inbounds nuw %struct.IMPL_CACHE_FLUSH, ptr %34, i32 0, i32 1
  %36 = load i64, ptr %35, align 8, !tbaa !78
  %37 = add i64 %36, 1
  store i64 %37, ptr %35, align 8, !tbaa !78
  br label %38

38:                                               ; preds = %33, %27
  call void @llvm.lifetime.end.p0(i64 4, ptr %5) #7
  ret void
}