; Function Attrs: nounwind uwtable
define internal void @impl_cache_flush_cache(ptr noundef %0, ptr noundef captures(none) %1) #0 {
  %3 = getelementptr inbounds nuw i8, ptr %1, i64 16
  %4 = load i32, ptr %3, align 8, !tbaa !62
  %5 = shl i32 %4, 13
  %6 = xor i32 %5, %4
  %7 = lshr i32 %6, 17
  %8 = xor i32 %7, %6
  %9 = shl i32 %8, 5
  %10 = xor i32 %9, %8
  store i32 %10, ptr %3, align 8, !tbaa !62
  %11 = and i32 %8, 1
  %.not = icmp eq i32 %11, 0
  br i1 %.not, label %18, label %12

12:                                               ; preds = %2
  %13 = load ptr, ptr %1, align 8, !tbaa !65
  %14 = tail call ptr @OPENSSL_LH_delete(ptr noundef %13, ptr noundef %0) #7
  %.not.i = icmp eq ptr %14, null
  br i1 %.not.i, label %impl_cache_free.exit, label %15

15:                                               ; preds = %12
  %16 = getelementptr inbounds nuw i8, ptr %14, i64 16
  %.val.i = load ptr, ptr %16, align 8, !tbaa !36
  %17 = getelementptr i8, ptr %14, i64 32
  %.val3.i = load ptr, ptr %17, align 8, !tbaa !37
  tail call void %.val3.i(ptr noundef %.val.i) #7
  tail call void @CRYPTO_free(ptr noundef nonnull %14, ptr noundef nonnull @.str, i32 noundef 215) #7
  br label %impl_cache_free.exit

18:                                               ; preds = %2
  %19 = getelementptr inbounds nuw i8, ptr %1, i64 8
  %20 = load i64, ptr %19, align 8, !tbaa !59
  %21 = add i64 %20, 1
  store i64 %21, ptr %19, align 8, !tbaa !59
  br label %impl_cache_free.exit

impl_cache_free.exit:                             ; preds = %15, %12, %18
  ret void
}